target datalayout = "e-m:e-p270:32:32-p271:32:32-p272:64:64-i64:64-i128:128-f80:128-n8:16:32:64-S128"
target triple = "x86_64-pc-linux-gnu"

%struct.AVBSFContext = type { ptr, ptr, ptr, ptr, ptr, %struct.AVRational, %struct.AVRational }
%struct.AVRational = type { i32, i32 }
%struct.ExtractExtradataContext = type { ptr, ptr, %struct.AV1Packet, %struct.H2645Packet, i32 }
%struct.AV1Packet = type { ptr, i32, i32, i32 }
%struct.H2645Packet = type { ptr, %struct.H2645RBSP, i32, i32, i32 }
%struct.H2645RBSP = type { ptr, ptr, i32, i32 }

; Function Attrs: nounwind uwtable
define internal i32 @extract_extradata_filter(ptr noundef %0, ptr noundef %1) #0 {
  %3 = alloca i32, align 4
  %4 = alloca ptr, align 8
  %5 = alloca ptr, align 8
  %6 = alloca ptr, align 8
  %7 = alloca ptr, align 8
  %8 = alloca i32, align 4
  %9 = alloca i32, align 4
  %10 = alloca i32, align 4
  store ptr %0, ptr %4, align 8, !tbaa !4
  store ptr %1, ptr %5, align 8, !tbaa !39
  call void @llvm.lifetime.start.p0(i64 8, ptr %6) #9
  %11 = load ptr, ptr %4, align 8, !tbaa !4
  %12 = getelementptr inbounds nuw %struct.AVBSFContext, ptr %11, i32 0, i32 2
  %13 = load ptr, ptr %12, align 8, !tbaa !9
  store ptr %13, ptr %6, align 8, !tbaa !16
  call void @llvm.lifetime.start.p0(i64 8, ptr %7) #9
  store ptr null, ptr %7, align 8, !tbaa !41
  call void @llvm.lifetime.start.p0(i64 4, ptr %8) #9
  call void @llvm.lifetime.start.p0(i64 4, ptr %9) #9
  store i32 0, ptr %9, align 4, !tbaa !18
  %14 = load ptr, ptr %4, align 8, !tbaa !4
  %15 = load ptr, ptr %5, align 8, !tbaa !39
  %16 = call i32 @ff_bsf_get_packet_ref(ptr noundef %14, ptr noundef %15)
  store i32 %16, ptr %9, align 4, !tbaa !18
  %17 = load i32, ptr %9, align 4, !tbaa !18
  %18 = icmp slt i32 %17, 0
  br i1 %18, label %19, label %21

19:                                               ; preds = %2
  %20 = load i32, ptr %9, align 4, !tbaa !18
  store i32 %20, ptr %3, align 4
  store i32 1, ptr %10, align 4
  br label %52

21:                                               ; preds = %2
  %22 = load ptr, ptr %6, align 8, !tbaa !16
  %23 = getelementptr inbounds nuw %struct.ExtractExtradataContext, ptr %22, i32 0, i32 1
  %24 = load ptr, ptr %23, align 8, !tbaa !29
  %25 = load ptr, ptr %4, align 8, !tbaa !4
  %26 = load ptr, ptr %5, align 8, !tbaa !39
  %27 = call i32 %24(ptr noundef %25, ptr noundef %26, ptr noundef %7, ptr noundef %8)
  store i32 %27, ptr %9, align 4, !tbaa !18
  %28 = load i32, ptr %9, align 4, !tbaa !18
  %29 = icmp slt i32 %28, 0
  br i1 %29, label %30, label %31

30:                                               ; preds = %21
  br label %49

31:                                               ; preds = %21
  %32 = load ptr, ptr %7, align 8, !tbaa !41
  %33 = icmp ne ptr %32, null
  br i1 %33, label %34, label %48

34:                                               ; preds = %31
  %35 = load ptr, ptr %7, align 8, !tbaa !41
  %36 = load i32, ptr %8, align 4, !tbaa !18
  %37 = sext i32 %36 to i64
  %38 = getelementptr inbounds i8, ptr %35, i64 %37
  call void @llvm.memset.p0.i64(ptr align 1 %38, i8 0, i64 64, i1 false)
  %39 = load ptr, ptr %5, align 8, !tbaa !39
  %40 = load ptr, ptr %7, align 8, !tbaa !41
  %41 = load i32, ptr %8, align 4, !tbaa !18
  %42 = sext i32 %41 to i64
  %43 = call i32 @av_packet_add_side_data(ptr noundef %39, i32 noundef 1, ptr noundef %40, i64 noundef %42)
  store i32 %43, ptr %9, align 4, !tbaa !18
  %44 = load i32, ptr %9, align 4, !tbaa !18
  %45 = icmp slt i32 %44, 0
  br i1 %45, label %46, label %47

46:                                               ; preds = %34
  call void @av_freep(ptr noundef %7)
  br label %49

47:                                               ; preds = %34
  br label %48

48:                                               ; preds = %47, %31
  store i32 0, ptr %3, align 4
  store i32 1, ptr %10, align 4
  br label %52

49:                                               ; preds = %46, %30
  %50 = load ptr, ptr %5, align 8, !tbaa !39
  call void @av_packet_unref(ptr noundef %50)
  %51 = load i32, ptr %9, align 4, !tbaa !18
  store i32 %51, ptr %3, align 4
  store i32 1, ptr %10, align 4
  br label %52

52:                                               ; preds = %49, %48, %19
  call void @llvm.lifetime.end.p0(i64 4, ptr %9) #9
  call void @llvm.lifetime.end.p0(i64 4, ptr %8) #9
  call void @llvm.lifetime.end.p0(i64 8, ptr %7) #9
  call void @llvm.lifetime.end.p0(i64 8, ptr %6) #9
  %53 = load i32, ptr %3, align 4
  ret i32 %53
}