; Function Attrs: nounwind uwtable
define internal range(i32 -2147483648, 1) i32 @extract_extradata_filter(ptr noundef %0, ptr noundef %1) #1 {
  %3 = alloca ptr, align 8
  %4 = alloca i32, align 4
  %5 = getelementptr inbounds nuw i8, ptr %0, i64 16
  %6 = load ptr, ptr %5, align 8, !tbaa !4
  call void @llvm.lifetime.start.p0(i64 8, ptr nonnull %3) #8
  store ptr null, ptr %3, align 8, !tbaa !34
  call void @llvm.lifetime.start.p0(i64 4, ptr nonnull %4) #8
  %7 = tail call i32 @ff_bsf_get_packet_ref(ptr noundef %0, ptr noundef %1) #8
  %8 = icmp slt i32 %7, 0
  br i1 %8, label %24, label %9

9:                                                ; preds = %2
  %10 = getelementptr inbounds nuw i8, ptr %6, i64 8
  %11 = load ptr, ptr %10, align 8, !tbaa !26
  %12 = call i32 %11(ptr noundef nonnull %0, ptr noundef %1, ptr noundef nonnull %3, ptr noundef nonnull %4) #8
  %13 = icmp slt i32 %12, 0
  br i1 %13, label %23, label %14

14:                                               ; preds = %9
  %15 = load ptr, ptr %3, align 8, !tbaa !34
  %.not = icmp eq ptr %15, null
  br i1 %.not, label %24, label %16

16:                                               ; preds = %14
  %17 = load i32, ptr %4, align 4, !tbaa !35
  %18 = sext i32 %17 to i64
  %19 = getelementptr inbounds i8, ptr %15, i64 %18
  call void @llvm.memset.p0.i64(ptr noundef nonnull align 1 dereferenceable(64) %19, i8 0, i64 64, i1 false)
  %20 = call i32 @av_packet_add_side_data(ptr noundef %1, i32 noundef 1, ptr noundef nonnull %15, i64 noundef %18) #8
  %21 = icmp slt i32 %20, 0
  br i1 %21, label %22, label %24

22:                                               ; preds = %16
  call void @av_freep(ptr noundef nonnull %3) #8
  br label %23

23:                                               ; preds = %9, %22
  %.0 = phi i32 [ %12, %9 ], [ %20, %22 ]
  call void @av_packet_unref(ptr noundef %1) #8
  br label %24

24:                                               ; preds = %14, %16, %2, %23
  %.013 = phi i32 [ %.0, %23 ], [ %7, %2 ], [ 0, %16 ], [ 0, %14 ]
  call void @llvm.lifetime.end.p0(i64 4, ptr nonnull %4) #8
  call void @llvm.lifetime.end.p0(i64 8, ptr nonnull %3) #8
  ret i32 %.013
}